; Function Attrs: mustprogress uwtable
define void @_ZN5arrow2io11InputStream7AdvanceEl(ptr noalias nocapture writeonly sret(%"class.arrow::Status") align 8 %agg.result, ptr noundef nonnull align 8 dereferenceable(8) %this, i64 noundef %nbytes) local_unnamed_addr #0 align 2 personality ptr @__gxx_personality_v0 {
entry:
  %ref.tmp = alloca %"class.arrow::Result.8", align 8
  %vtable = load ptr, ptr %this, align 8
  %vbase.offset.ptr = getelementptr i8, ptr %vtable, i64 -64
  %vbase.offset = load i64, ptr %vbase.offset.ptr, align 8
  %add.ptr = getelementptr inbounds i8, ptr %this, i64 %vbase.offset
  %vtable2 = load ptr, ptr %add.ptr, align 8
  %vfn = getelementptr inbounds i8, ptr %vtable2, i64 24
  %0 = load ptr, ptr %vfn, align 8
  call void %0(ptr nonnull sret(%"class.arrow::Result.8") align 8 %ref.tmp, ptr noundef nonnull align 8 dereferenceable(8) %add.ptr, i64 noundef %nbytes)
  %1 = load ptr, ptr %ref.tmp, align 8
  %cmp.i = icmp eq ptr %1, null
  br i1 %cmp.i, label %invoke.cont3, label %cond.false.i

cond.false.i:                                     ; preds = %entry
  %call.i1 = invoke noalias noundef nonnull dereferenceable(56) ptr @_Znwm(i64 noundef 56) #30
          to label %call.i.noexc unwind label %lpad

call.i.noexc:                                     ; preds = %cond.false.i
  %2 = load i8, ptr %1, align 8
  store i8 %2, ptr %call.i1, align 8
  %msg.i.i = getelementptr inbounds i8, ptr %call.i1, i64 8
  %msg3.i.i = getelementptr inbounds i8, ptr %1, i64 8
  invoke void @_ZNSt7__cxx1112basic_stringIcSt11char_traitsIcESaIcEEC1ERKS4_(ptr noundef nonnull align 8 dereferenceable(32) %msg.i.i, ptr noundef nonnull align 8 dereferenceable(32) %msg3.i.i)
          to label %.noexc.i unwind label %lpad4.i

.noexc.i:                                         ; preds = %call.i.noexc
  %detail.i.i = getelementptr inbounds i8, ptr %call.i1, i64 40
  %detail4.i.i = getelementptr inbounds i8, ptr %1, i64 40
  %3 = load ptr, ptr %detail4.i.i, align 8
  store ptr %3, ptr %detail.i.i, align 8
  %_M_refcount.i.i.i.i = getelementptr inbounds i8, ptr %call.i1, i64 48
  %_M_refcount3.i.i.i.i = getelementptr inbounds i8, ptr %1, i64 48
  %4 = load ptr, ptr %_M_refcount3.i.i.i.i, align 8
  store ptr %4, ptr %_M_refcount.i.i.i.i, align 8
  %cmp.not.i.i.i.i.i = icmp eq ptr %4, null
  br i1 %cmp.not.i.i.i.i.i, label %invoke.cont3, label %if.then.i.i.i.i.i

if.then.i.i.i.i.i:                                ; preds = %.noexc.i
  %_M_use_count.i.i.i.i.i.i = getelementptr inbounds i8, ptr %4, i64 8
  %5 = load i8, ptr @__libc_single_threaded, align 1
  %tobool.i.i.not.i.i.i.i.i.i = icmp eq i8 %5, 0
  br i1 %tobool.i.i.not.i.i.i.i.i.i, label %if.else.i.i.i.i.i.i.i, label %if.then.i.i.i.i.i.i.i

if.then.i.i.i.i.i.i.i:                            ; preds = %if.then.i.i.i.i.i
  %6 = load i32, ptr %_M_use_count.i.i.i.i.i.i, align 4
  %add.i.i.i.i.i.i.i = add nsw i32 %6, 1
  store i32 %add.i.i.i.i.i.i.i, ptr %_M_use_count.i.i.i.i.i.i, align 4
  br label %invoke.cont3

if.else.i.i.i.i.i.i.i:                            ; preds = %if.then.i.i.i.i.i
  %7 = atomicrmw volatile add ptr %_M_use_count.i.i.i.i.i.i, i32 1 acq_rel, align 4
  br label %invoke.cont3

lpad4.i:                                          ; preds = %call.i.noexc
  %8 = landingpad { ptr, i32 }
          cleanup
  call void @_ZdlPv(ptr noundef nonnull %call.i1) #31
  br label %lpad.body

invoke.cont3:                                     ; preds = %if.else.i.i.i.i.i.i.i, %if.then.i.i.i.i.i.i.i, %.noexc.i, %entry
  %cond.i = phi ptr [ null, %entry ], [ %call.i1, %.noexc.i ], [ %call.i1, %if.then.i.i.i.i.i.i.i ], [ %call.i1, %if.else.i.i.i.i.i.i.i ]
  store ptr %cond.i, ptr %agg.result, align 8
  call void @_ZN5arrow6ResultISt10shared_ptrINS_6BufferEEED2Ev(ptr noundef nonnull align 8 dereferenceable(24) %ref.tmp) #28
  ret void

lpad:                                             ; preds = %cond.false.i
  %9 = landingpad { ptr, i32 }
          cleanup
  br label %lpad.body

lpad.body:                                        ; preds = %lpad4.i, %lpad
  %eh.lpad-body = phi { ptr, i32 } [ %9, %lpad ], [ %8, %lpad4.i ]
  call void @_ZN5arrow6ResultISt10shared_ptrINS_6BufferEEED2Ev(ptr noundef nonnull align 8 dereferenceable(24) %ref.tmp) #28
  resume { ptr, i32 } %eh.lpad-body
}